; Function Attrs: mustprogress nounwind uwtable
define hidden noundef ptr @_ZN6hermes12evalToNumberERNS_9IRBuilderEPNS_7LiteralE(ptr noundef nonnull align 8 dereferenceable(40) %builder, ptr noundef readonly %operand) local_unnamed_addr #0 {
entry:
  %0 = load i8, ptr %operand, align 8
  switch i8 %0, label %if.end6 [
    i8 114, label %return
    i8 117, label %if.then3
  ]

if.then3:                                         ; preds = %entry
  %value.i = getelementptr inbounds nuw i8, ptr %operand, i64 40
  %1 = load i8, ptr %value.i, align 8
  %tobool.i = trunc i8 %1 to i1
  %conv = uitofp i1 %tobool.i to double
  %call5 = tail call noundef ptr @_ZN6hermes9IRBuilder16getLiteralNumberEd(ptr noundef nonnull align 8 dereferenceable(40) %builder, double noundef %conv) #6
  br label %return

if.end6:                                          ; preds = %entry
  %valueType.i = getelementptr inbounds nuw i8, ptr %operand, i64 2
  %retval.sroa.0.0.copyload.i = load i32, ptr %valueType.i, align 2
  %ref.tmp.sroa.0.0.extract.trunc = trunc i32 %retval.sroa.0.0.copyload.i to i16
  switch i16 %ref.tmp.sroa.0.0.extract.trunc, label %return [
    i16 2, label %if.then9
    i16 4, label %if.then15
  ]

if.then9:                                         ; preds = %if.end6
  %call10 = tail call noundef ptr @_ZN6hermes9IRBuilder13getLiteralNaNEv(ptr noundef nonnull align 8 dereferenceable(40) %builder) #6
  br label %return

if.then15:                                        ; preds = %if.end6
  %call16 = tail call noundef ptr @_ZN6hermes9IRBuilder22getLiteralPositiveZeroEv(ptr noundef nonnull align 8 dereferenceable(40) %builder) #6
  br label %return

return:                                           ; preds = %entry, %if.end6, %if.then15, %if.then9, %if.then3
  %retval.0 = phi ptr [ %call5, %if.then3 ], [ %call10, %if.then9 ], [ %call16, %if.then15 ], [ %operand, %entry ], [ null, %if.end6 ]
  ret ptr %retval.0
}